Certificate:
    Data:
        Version: 3 (0x2)
        Serial Number: 6 (0x6)
    Signature Algorithm: sha256WithRSAEncryption
        Issuer: C=BA, ST=RS, L=Banja Luka, O=Elektrotehnicki fakultet, OU=CA_DjordjeAntesevic, CN=Djordje Antesevic/emailAddress=rendyjohnrey@hotmail.com
        Validity
            Not Before: Dec 25 16:31:48 2018 GMT
            Not After : Mar 25 16:31:48 2019 GMT
        Subject: C=BA, ST=RS, O=Elektrotehnicki fakultet, OU=CA_DjordjeAntesevic, CN=Marko Markovic/emailAddress=markom@hotmail.com
        Subject Public Key Info:
            Public Key Algorithm: rsaEncryption
                Public-Key: (4096 bit)
                Modulus:
                    00:c6:ba:d7:71:f4:40:f7:11:c6:80:26:41:4a:d4:
                    ed:5a:a6:c8:db:4c:50:7b:e6:f4:c6:14:fa:c0:a6:
                    db:3b:87:51:37:8e:d2:b5:36:ee:55:54:5a:bd:c9:
                    ad:16:65:14:19:9d:0d:4a:e4:87:b7:45:dc:d3:8b:
                    0f:b5:30:23:0e:25:56:6b:d0:a3:5e:62:06:08:8d:
                    8e:6a:3b:93:09:de:50:60:59:ce:0b:dd:10:b9:fa:
                    5d:e6:cd:7f:1b:2f:0f:12:77:ec:4a:89:4a:aa:9e:
                    5b:29:2c:d7:49:bc:6d:0c:9e:33:13:44:2b:c4:ec:
                    2d:3b:65:fb:8a:70:dd:72:c6:f3:5a:b0:82:52:08:
                    5c:1a:fe:84:4b:76:21:35:70:39:3c:43:c7:76:3b:
                    64:c5:05:98:26:40:65:e5:dc:36:eb:30:f3:99:84:
                    4d:e6:1a:c0:78:89:e0:8f:c0:9d:18:ab:fb:8f:f1:
                    fc:d8:fa:9b:57:42:b8:f4:ef:f2:98:75:c8:19:30:
                    ff:51:fd:d4:94:9b:71:59:43:d4:08:6a:60:c2:4f:
                    0b:aa:28:78:52:82:57:b5:2d:78:7e:35:5e:cf:99:
                    b5:1e:eb:61:4d:30:f2:b4:42:ac:72:7f:76:52:d1:
                    07:76:8a:da:7b:dc:6b:f1:7e:f8:03:e6:35:68:98:
                    64:3c:02:c0:cb:f4:dc:ea:97:ec:ea:cb:9d:cf:79:
                    44:c6:ca:df:5b:70:3c:38:5d:95:32:f7:d1:6a:f9:
                    c3:1a:e2:4b:bd:d6:df:34:2d:dc:d1:e2:96:bd:d3:
                    3e:2c:6d:be:3a:43:3e:50:76:9d:cc:34:02:18:2f:
                    a9:65:95:d9:f9:54:0c:f7:62:dd:e8:b6:10:4c:63:
                    fd:98:36:8e:28:c7:71:9a:85:c5:12:ea:72:32:73:
                    18:0e:b3:c1:e1:e2:bd:14:e7:8e:6f:86:34:0e:99:
                    29:ea:03:1c:13:eb:9a:bc:3a:80:8d:2d:63:e7:8e:
                    29:b3:87:f9:a1:88:ed:08:f0:2f:83:9f:b9:c5:01:
                    66:3e:1c:3c:b8:f5:58:29:47:d2:db:fe:7d:00:58:
                    31:35:e7:2f:d4:c2:61:52:4b:db:5c:73:b3:76:24:
                    6b:70:f3:ab:25:56:9e:26:1f:63:3a:d7:22:13:63:
                    4b:70:79:54:f6:06:01:a3:08:54:a5:fb:a1:14:09:
                    fb:cd:f4:d8:a2:1c:45:33:e3:4c:bf:b4:33:7d:0f:
                    1f:f8:cf:2b:84:f6:13:00:f4:a9:b0:0a:0f:c3:66:
                    1d:52:06:c1:e0:90:fb:99:a4:34:84:4c:be:5a:86:
                    65:30:f0:78:28:57:e0:b8:b0:c4:0d:02:0f:2e:07:
                    49:c3:0b
                Exponent: 65537 (0x10001)
        X509v3 extensions:
            X509v3 Basic Constraints: 
                CA:FALSE
            X509v3 Key Usage: 
                Digital Signature
            X509v3 Extended Key Usage: 
                TLS Web Client Authentication
            Netscape Comment: 
                OpenSSL Generated Certificate
            X509v3 Subject Key Identifier: 
                9F:95:DB:42:EE:35:80:0E:C4:A8:FF:59:3A:42:D2:F1:C2:92:E5:09
            X509v3 Authority Key Identifier: 
                keyid:4B:5C:71:51:E1:D4:0F:F1:A7:89:B4:B4:4A:BE:2D:75:48:21:FE:6A

            X509v3 CRL Distribution Points: 

                Full Name:
                  URI:http://192.168.21.89/rootcrl.pem

    Signature Algorithm: sha256WithRSAEncryption
         44:e9:48:7f:70:a9:fb:e1:10:08:e9:06:f7:8f:2e:52:10:ad:
         dd:a9:4b:e8:2a:0a:55:7b:16:f1:f7:48:00:b9:e9:a4:12:1d:
         99:7c:af:e8:df:ef:5c:6d:b1:6d:88:0f:9f:5b:ba:57:8a:ae:
         3a:0c:13:5a:9e:c1:22:13:56:5d:9d:e9:be:6d:dc:2e:df:0a:
         5e:1d:fa:e1:b1:5b:1a:ac:b7:fc:35:2e:d0:12:09:42:1f:97:
         02:7c:0c:61:80:b3:22:2b:2f:8e:67:d7:bf:8e:30:93:1a:a8:
         06:8a:92:87:fa:4e:06:9e:26:19:21:b7:63:96:f0:1d:c3:8a:
         a2:8b:8b:02:6f:b0:ea:21:b6:d5:ad:d4:db:fd:bd:40:7c:ac:
         cb:74:44:d5:f8:c4:2c:16:4a:dd:34:2d:ec:56:37:47:c0:ac:
         a0:c3:d8:e4:38:ae:5e:4a:50:62:0b:a3:5b:9f:e9:04:18:94:
         b8:74:62:b6:09:43:90:66:22:4b:0d:96:a4:69:1c:7f:a9:50:
         a2:07:b1:ff:66:41:d3:ab:13:4c:25:27:62:ee:bd:3d:39:68:
         c2:4a:9a:88:4a:15:32:d3:c9:c8:00:6c:79:15:0b:c9:45:eb:
         0a:ce:f5:4f:fc:a4:7f:46:dc:5f:99:7d:4b:57:28:66:ec:26:
         b3:2f:00:c6:0e:5c:cd:40:df:1d:9b:5b:40:44:17:50:c4:e2:
         ae:4e:42:4f:2a:75:9c:1d:0d:bb:0a:94:42:a1:5b:2d:3b:1d:
         23:07:3c:65:4d:3f:e2:8d:84:51:63:3d:5c:d5:07:15:5b:5b:
         20:e1:5d:1c:18:cf:0a:9d:d3:41:78:09:48:40:3f:68:77:7d:
         f9:25:2c:ac:fb:4a:f4:a9:6e:7a:b1:f9:e3:6b:f9:90:18:5e:
         27:4d:61:2d:58:0f:df:ef:09:fd:31:7b:b6:85:ab:41:a9:e2:
         d5:02:4b:f6:78:39:bd:e2:5b:15:b4:38:42:64:a4:18:c6:7a:
         63:c0:30:64:eb:05:1e:bb:11:04:01:70:48:b8:e9:d3:f8:b5:
         c9:25:1c:39:98:28:c2:51:0b:36:9f:c1:c3:12:74:70:8e:ed:
         e9:4b:2c:9b:50:d7:0b:63:34:93:32:92:6e:a7:e7:62:4e:5c:
         0d:8e:70:ee:ab:44:7e:b4:a8:a8:3e:a3:14:c9:31:fe:3a:34:
         9f:5c:c4:05:68:4e:d0:ed:64:e0:69:6d:eb:46:36:ae:ad:bd:
         44:2f:c1:bb:22:18:c0:a0:59:17:d8:1f:75:91:9a:17:e2:fc:
         d8:55:3f:5f:78:81:1e:3d:86:7f:fd:a7:08:07:3d:70:0c:11:
         67:70:88:01:ae:a0:62:d7
-----BEGIN CERTIFICATE-----
MIIGmzCCBIOgAwIBAgIBBjANBgkqhkiG9w0BAQsFADCBtTELMAkGA1UEBhMCQkEx
CzAJBgNVBAgTAlJTMRMwEQYDVQQHEwpCYW5qYSBMdWthMSEwHwYDVQQKExhFbGVr
dHJvdGVobmlja2kgZmFrdWx0ZXQxHDAaBgNVBAsUE0NBX0Rqb3JkamVBbnRlc2V2
aWMxGjAYBgNVBAMTEURqb3JkamUgQW50ZXNldmljMScwJQYJKoZIhvcNAQkBFhhy
ZW5keWpvaG5yZXlAaG90bWFpbC5jb20wHhcNMTgxMjI1MTYzMTQ4WhcNMTkwMzI1
MTYzMTQ4WjCBlzELMAkGA1UEBhMCQkExCzAJBgNVBAgTAlJTMSEwHwYDVQQKExhF
bGVrdHJvdGVobmlja2kgZmFrdWx0ZXQxHDAaBgNVBAsUE0NBX0Rqb3JkamVBbnRl
c2V2aWMxFzAVBgNVBAMTDk1hcmtvIE1hcmtvdmljMSEwHwYJKoZIhvcNAQkBFhJt
YXJrb21AaG90bWFpbC5jb20wggIiMA0GCSqGSIb3DQEBAQUAA4ICDwAwggIKAoIC
AQDGutdx9ED3EcaAJkFK1O1apsjbTFB75vTGFPrApts7h1E3jtK1Nu5VVFq9ya0W
ZRQZnQ1K5Ie3RdzTiw+1MCMOJVZr0KNeYgYIjY5qO5MJ3lBgWc4L3RC5+l3mzX8b
Lw8Sd+xKiUqqnlspLNdJvG0MnjMTRCvE7C07ZfuKcN1yxvNasIJSCFwa/oRLdiE1
cDk8Q8d2O2TFBZgmQGXl3DbrMPOZhE3mGsB4ieCPwJ0Yq/uP8fzY+ptXQrj07/KY
dcgZMP9R/dSUm3FZQ9QIamDCTwuqKHhSgle1LXh+NV7PmbUe62FNMPK0Qqxyf3ZS
0Qd2itp73GvxfvgD5jVomGQ8AsDL9Nzql+zqy53PeUTGyt9bcDw4XZUy99Fq+cMa
4ku91t80LdzR4pa90z4sbb46Qz5Qdp3MNAIYL6llldn5VAz3Yt3othBMY/2YNo4o
x3GahcUS6nIycxgOs8Hh4r0U545vhjQOmSnqAxwT65q8OoCNLWPnjimzh/mhiO0I
8C+Dn7nFAWY+HDy49VgpR9Lb/n0AWDE15y/UwmFSS9tcc7N2JGtw86slVp4mH2M6
1yITY0tweVT2BgGjCFSl+6EUCfvN9NiiHEUz40y/tDN9Dx/4zyuE9hMA9KmwCg/D
Zh1SBsHgkPuZpDSETL5ahmUw8HgoV+C4sMQNAg8uB0nDCwIDAQABo4HRMIHOMAkG
A1UdEwQCMAAwCwYDVR0PBAQDAgeAMBMGA1UdJQQMMAoGCCsGAQUFBwMCMCwGCWCG
SAGG+EIBDQQfFh1PcGVuU1NMIEdlbmVyYXRlZCBDZXJ0aWZpY2F0ZTAdBgNVHQ4E
FgQUn5XbQu41gA7EqP9ZOkLS8cKS5QkwHwYDVR0jBBgwFoAUS1xxUeHUD/GnibS0
Sr4tdUgh/mowMQYDVR0fBCowKDAmoCSgIoYgaHR0cDovLzE5Mi4xNjguMjEuODkv
cm9vdGNybC5wZW0wDQYJKoZIhvcNAQELBQADggIBAETpSH9wqfvhEAjpBvePLlIQ
rd2pS+gqClV7FvH3SAC56aQSHZl8r+jf71xtsW2ID59buleKrjoME1qewSITVl2d
6b5t3C7fCl4d+uGxWxqst/w1LtASCUIflwJ8DGGAsyIrL45n17+OMJMaqAaKkof6
TgaeJhkht2OW8B3DiqKLiwJvsOohttWt1Nv9vUB8rMt0RNX4xCwWSt00LexWN0fA
rKDD2OQ4rl5KUGILo1uf6QQYlLh0YrYJQ5BmIksNlqRpHH+pUKIHsf9mQdOrE0wl
J2LuvT05aMJKmohKFTLTycgAbHkVC8lF6wrO9U/8pH9G3F+ZfUtXKGbsJrMvAMYO
XM1A3x2bW0BEF1DE4q5OQk8qdZwdDbsKlEKhWy07HSMHPGVNP+KNhFFjPVzVBxVb
WyDhXRwYzwqd00F4CUhAP2h3ffklLKz7SvSpbnqx+eNr+ZAYXidNYS1YD9/vCf0x
e7aFq0Gp4tUCS/Z4Ob3iWxW0OEJkpBjGemPAMGTrBR67EQQBcEi46dP4tcklHDmY
KMJRCzafwcMSdHCO7elLLJtQ1wtjNJMykm6n52JOXA2OcO6rRH60qKg+oxTJMf46
NJ9cxAVoTtDtZOBpbetGNq6tvUQvwbsiGMCgWRfYH3WRmhfi/NhVP194gR49hn/9
pwgHPXAMEWdwiAGuoGLX
-----END CERTIFICATE-----
